; Function Attrs: mustprogress uwtable
define hidden void @_ZN4lean2ir8mk_jdeclERKNS_3natERKNS_6bufferINS_10object_refELm16EEERKS5_SA_(ptr dead_on_unwind noalias writable writeonly sret(%"class.lean::object_ref") align 8 captures(none) %0, ptr noundef nonnull readonly align 8 captures(none) dereferenceable(8) %1, ptr noundef nonnull readonly align 8 captures(none) dereferenceable(152) %2, ptr noundef nonnull readonly align 8 captures(none) dereferenceable(8) %3, ptr noundef nonnull readonly align 8 captures(none) dereferenceable(8) %4) local_unnamed_addr #0 {
  %6 = load ptr, ptr %1, align 8, !tbaa !3
  %7 = ptrtoint ptr %6 to i64
  %8 = and i64 %7, 1
  %.not.i.i = icmp eq i64 %8, 0
  br i1 %.not.i.i, label %9, label %_ZNK4lean10object_ref10to_obj_argEv.exit

9:                                                ; preds = %5
  %.val.i.i.i = load i32, ptr %6, align 4, !tbaa !8
  %10 = icmp sgt i32 %.val.i.i.i, 0
  br i1 %10, label %11, label %13, !prof !11

11:                                               ; preds = %9
  %12 = add nuw nsw i32 %.val.i.i.i, 1
  store i32 %12, ptr %6, align 4, !tbaa !8
  br label %_ZNK4lean10object_ref10to_obj_argEv.exit

13:                                               ; preds = %9
  %.not.i.i.i = icmp eq i32 %.val.i.i.i, 0
  br i1 %.not.i.i.i, label %_ZNK4lean10object_ref10to_obj_argEv.exit, label %14

14:                                               ; preds = %13
  tail call void @lean_inc_ref_cold(ptr noundef nonnull %6)
  %.pre.i = load ptr, ptr %1, align 8, !tbaa !3
  br label %_ZNK4lean10object_ref10to_obj_argEv.exit

_ZNK4lean10object_ref10to_obj_argEv.exit:         ; preds = %5, %11, %13, %14
  %15 = phi ptr [ %6, %5 ], [ %6, %11 ], [ %6, %13 ], [ %.pre.i, %14 ]
  %16 = getelementptr inbounds nuw i8, ptr %2, i64 8
  %17 = load i64, ptr %16, align 8, !tbaa !13
  %18 = shl i64 %17, 3
  %19 = add i64 %18, 24
  %20 = tail call ptr @lean_alloc_object(i64 noundef %19)
  store i32 1, ptr %20, align 4, !tbaa !8
  %21 = getelementptr inbounds nuw i8, ptr %20, i64 4
  %22 = load i32, ptr %21, align 4
  %23 = and i32 %22, 65535
  %24 = or disjoint i32 %23, -167772160
  store i32 %24, ptr %21, align 4
  %25 = getelementptr inbounds nuw i8, ptr %20, i64 8
  store i64 %17, ptr %25, align 8, !tbaa !17
  %26 = getelementptr inbounds nuw i8, ptr %20, i64 16
  store i64 %17, ptr %26, align 8, !tbaa !17
  %27 = load ptr, ptr %2, align 8, !tbaa !18
  %28 = load i64, ptr %16, align 8, !tbaa !13
  %29 = getelementptr inbounds nuw %"class.lean::object_ref", ptr %27, i64 %28
  %.not15.i = icmp eq i64 %28, 0
  br i1 %.not15.i, label %_ZN4lean8to_arrayINS_6bufferINS_10object_refELm16EEEEEP11lean_objectRKT_.exit, label %.lr.ph.i

.lr.ph.i:                                         ; preds = %_ZNK4lean10object_ref10to_obj_argEv.exit
  %30 = getelementptr inbounds nuw i8, ptr %20, i64 24
  br label %31

31:                                               ; preds = %_ZN4lean3incEP11lean_object.exit.i, %.lr.ph.i
  %.017.i = phi i64 [ 0, %.lr.ph.i ], [ %43, %_ZN4lean3incEP11lean_object.exit.i ]
  %.01416.i = phi ptr [ %27, %.lr.ph.i ], [ %44, %_ZN4lean3incEP11lean_object.exit.i ]
  %32 = load ptr, ptr %.01416.i, align 8, !tbaa !3
  %33 = ptrtoint ptr %32 to i64
  %34 = and i64 %33, 1
  %.not.i.i4 = icmp eq i64 %34, 0
  br i1 %.not.i.i4, label %35, label %_ZN4lean3incEP11lean_object.exit.i

35:                                               ; preds = %31
  %.val.i.i.i5 = load i32, ptr %32, align 4, !tbaa !8
  %36 = icmp sgt i32 %.val.i.i.i5, 0
  br i1 %36, label %37, label %39, !prof !11

37:                                               ; preds = %35
  %38 = add nuw nsw i32 %.val.i.i.i5, 1
  store i32 %38, ptr %32, align 4, !tbaa !8
  br label %_ZN4lean3incEP11lean_object.exit.i

39:                                               ; preds = %35
  %.not.i.i.i6 = icmp eq i32 %.val.i.i.i5, 0
  br i1 %.not.i.i.i6, label %_ZN4lean3incEP11lean_object.exit.i, label %40

40:                                               ; preds = %39
  tail call void @lean_inc_ref_cold(ptr noundef nonnull %32)
  %.pre.i7 = load ptr, ptr %.01416.i, align 8, !tbaa !3
  br label %_ZN4lean3incEP11lean_object.exit.i

_ZN4lean3incEP11lean_object.exit.i:               ; preds = %40, %39, %37, %31
  %41 = phi ptr [ %32, %31 ], [ %32, %37 ], [ %32, %39 ], [ %.pre.i7, %40 ]
  %42 = getelementptr inbounds nuw [0 x ptr], ptr %30, i64 0, i64 %.017.i
  store ptr %41, ptr %42, align 8, !tbaa !12
  %43 = add nuw nsw i64 %.017.i, 1
  %44 = getelementptr inbounds nuw i8, ptr %.01416.i, i64 8
  %.not.i = icmp eq ptr %44, %29
  br i1 %.not.i, label %_ZN4lean8to_arrayINS_6bufferINS_10object_refELm16EEEEEP11lean_objectRKT_.exit, label %31

_ZN4lean8to_arrayINS_6bufferINS_10object_refELm16EEEEEP11lean_objectRKT_.exit: ; preds = %_ZN4lean3incEP11lean_object.exit.i, %_ZNK4lean10object_ref10to_obj_argEv.exit
  %45 = load ptr, ptr %3, align 8, !tbaa !3
  %46 = ptrtoint ptr %45 to i64
  %47 = and i64 %46, 1
  %.not.i.i8 = icmp eq i64 %47, 0
  br i1 %.not.i.i8, label %48, label %_ZNK4lean10object_ref10to_obj_argEv.exit13

48:                                               ; preds = %_ZN4lean8to_arrayINS_6bufferINS_10object_refELm16EEEEEP11lean_objectRKT_.exit
  %.val.i.i.i10 = load i32, ptr %45, align 4, !tbaa !8
  %49 = icmp sgt i32 %.val.i.i.i10, 0
  br i1 %49, label %50, label %52, !prof !11

50:                                               ; preds = %48
  %51 = add nuw nsw i32 %.val.i.i.i10, 1
  store i32 %51, ptr %45, align 4, !tbaa !8
  br label %_ZNK4lean10object_ref10to_obj_argEv.exit13

52:                                               ; preds = %48
  %.not.i.i.i11 = icmp eq i32 %.val.i.i.i10, 0
  br i1 %.not.i.i.i11, label %_ZNK4lean10object_ref10to_obj_argEv.exit13, label %53

53:                                               ; preds = %52
  tail call void @lean_inc_ref_cold(ptr noundef nonnull %45)
  %.pre.i12 = load ptr, ptr %3, align 8, !tbaa !3
  br label %_ZNK4lean10object_ref10to_obj_argEv.exit13

_ZNK4lean10object_ref10to_obj_argEv.exit13:       ; preds = %_ZN4lean8to_arrayINS_6bufferINS_10object_refELm16EEEEEP11lean_objectRKT_.exit, %50, %52, %53
  %54 = phi ptr [ %45, %_ZN4lean8to_arrayINS_6bufferINS_10object_refELm16EEEEEP11lean_objectRKT_.exit ], [ %45, %50 ], [ %45, %52 ], [ %.pre.i12, %53 ]
  %55 = load ptr, ptr %4, align 8, !tbaa !3
  %56 = ptrtoint ptr %55 to i64
  %57 = and i64 %56, 1
  %.not.i.i14 = icmp eq i64 %57, 0
  br i1 %.not.i.i14, label %58, label %_ZNK4lean10object_ref10to_obj_argEv.exit19

58:                                               ; preds = %_ZNK4lean10object_ref10to_obj_argEv.exit13
  %.val.i.i.i16 = load i32, ptr %55, align 4, !tbaa !8
  %59 = icmp sgt i32 %.val.i.i.i16, 0
  br i1 %59, label %60, label %62, !prof !11

60:                                               ; preds = %58
  %61 = add nuw nsw i32 %.val.i.i.i16, 1
  store i32 %61, ptr %55, align 4, !tbaa !8
  br label %_ZNK4lean10object_ref10to_obj_argEv.exit19

62:                                               ; preds = %58
  %.not.i.i.i17 = icmp eq i32 %.val.i.i.i16, 0
  br i1 %.not.i.i.i17, label %_ZNK4lean10object_ref10to_obj_argEv.exit19, label %63

63:                                               ; preds = %62
  tail call void @lean_inc_ref_cold(ptr noundef nonnull %55)
  %.pre.i18 = load ptr, ptr %4, align 8, !tbaa !3
  br label %_ZNK4lean10object_ref10to_obj_argEv.exit19

_ZNK4lean10object_ref10to_obj_argEv.exit19:       ; preds = %_ZNK4lean10object_ref10to_obj_argEv.exit13, %60, %62, %63
  %64 = phi ptr [ %55, %_ZNK4lean10object_ref10to_obj_argEv.exit13 ], [ %55, %60 ], [ %55, %62 ], [ %.pre.i18, %63 ]
  %65 = tail call ptr @lean_ir_mk_jdecl(ptr noundef %15, ptr noundef nonnull %20, ptr noundef %54, ptr noundef %64)
  store ptr %65, ptr %0, align 8, !tbaa !3
  ret void
}